; Function Attrs: nounwind sspstrong uwtable
define internal range(i64 0, 21) i64 @rb_reg_eqq(i64 noundef %0, i64 noundef %1) #2 {
  %3 = and i64 %1, 255
  %4 = icmp eq i64 %3, 12
  br i1 %4, label %RB_SYMBOL_P.exit.thread.i, label %5

5:                                                ; preds = %2
  %6 = icmp eq i64 %1, 0
  %7 = and i64 %1, 7
  %8 = icmp ne i64 %7, 0
  %9 = or i1 %6, %8
  br i1 %9, label %rbimpl_RB_TYPE_P_fastpath.exit.thread.i, label %RB_SYMBOL_P.exit.i

RB_SYMBOL_P.exit.i:                               ; preds = %5
  %10 = inttoptr i64 %1 to ptr
  %11 = load i64, ptr %10, align 8, !tbaa !34
  %12 = and i64 %11, 31
  switch i64 %12, label %rbimpl_RB_TYPE_P_fastpath.exit.thread.i [
    i64 20, label %RB_SYMBOL_P.exit.thread.i
    i64 5, label %reg_operand.exit
  ]

RB_SYMBOL_P.exit.thread.i:                        ; preds = %RB_SYMBOL_P.exit.i, %2
  %13 = tail call i64 @rb_sym2str(i64 noundef %1) #29
  br label %reg_operand.exit

rbimpl_RB_TYPE_P_fastpath.exit.thread.i:          ; preds = %RB_SYMBOL_P.exit.i, %5
  %14 = tail call i64 @rb_check_string_type(i64 noundef %1) #29
  br label %reg_operand.exit

reg_operand.exit:                                 ; preds = %RB_SYMBOL_P.exit.i, %RB_SYMBOL_P.exit.thread.i, %rbimpl_RB_TYPE_P_fastpath.exit.thread.i
  %.0.i = phi i64 [ %13, %RB_SYMBOL_P.exit.thread.i ], [ %14, %rbimpl_RB_TYPE_P_fastpath.exit.thread.i ], [ %1, %RB_SYMBOL_P.exit.i ]
  %15 = icmp eq i64 %.0.i, 4
  br i1 %15, label %16, label %17

16:                                               ; preds = %reg_operand.exit
  tail call void @rb_backref_set(i64 noundef 4) #29
  br label %20

17:                                               ; preds = %reg_operand.exit
  %18 = tail call fastcc range(i64 -1, -9223372036854775808) i64 @rb_reg_search_set_match(i64 noundef %0, i64 noundef %.0.i, i64 noundef 0, i32 noundef 0, i32 noundef 1, ptr noundef null)
  %.inv = icmp slt i64 %18, 0
  %19 = select i1 %.inv, i64 0, i64 20
  br label %20

20:                                               ; preds = %17, %16
  %.0 = phi i64 [ 0, %16 ], [ %19, %17 ]
  ret i64 %.0
}